; Function Attrs: nounwind uwtable
define zeroext range(i8 0, 2) i8 @l_Std_Time_HourMarker_ofNat(ptr noundef %0) local_unnamed_addr #1 {
  %2 = ptrtoint ptr %0 to i64
  %3 = and i64 %2, 1
  %.not = icmp eq i64 %3, 0
  br i1 %.not, label %.critedge.i, label %4, !prof !15

4:                                                ; preds = %1
  %5 = icmp eq ptr %0, inttoptr (i64 1 to ptr)
  br label %lean_nat_eq.exit

.critedge.i:                                      ; preds = %1
  %6 = tail call zeroext i1 @lean_nat_big_eq(ptr noundef %0, ptr noundef nonnull inttoptr (i64 1 to ptr)) #7
  br label %lean_nat_eq.exit

lean_nat_eq.exit:                                 ; preds = %4, %.critedge.i
  %.0.i = phi i1 [ %5, %4 ], [ %6, %.critedge.i ]
  %7 = xor i1 %.0.i, true
  %. = zext i1 %7 to i8
  ret i8 %.
}